GAS LISTING riscv64/generated/assemblySamples/semantics.S 			page 1


   1              	 
   2              	 
   3              	 /*
   4              	  * Collect sample C utilities using vector instructions from
   5              	  * https://github.com/riscv/riscv-v-spec/tree/master/example
   6              	  *
   7              	  * Use these for prioritization of semantics
   8              	 */
   9              	 .text
  10 0000 0100     	    .balign 4
  11              	    .global memcpy
  12              	    # void *memcpy(void* dest, const void* src, size_t n)
  13              	    # a0=dest, a1=src, a2=n
  14              	    #
  15              	  memcpy:
  16 0002 AA86     	      mv a3, a0 # Copy destination
  17              	  1:
  18 0004 D772360C 	    vsetvli t0, a2, e8, m8, ta, ma   # Vectors of 8b
  19 0008 07800502 	    vle8.v v0, (a1)               # Load bytes
  20 000c 9695     	      add a1, a1, t0              # Bump pointer
  21 000e 33065640 	      sub a2, a2, t0              # Decrement count
  22 0012 27800602 	    vse8.v v0, (a3)               # Store bytes
  23 0016 9696     	      add a3, a3, t0              # Bump pointer
  24 0018 75F6     	      bnez a2, 1b                 # Any more?
  25 001a 8280     	      ret                         # Return
  26              	
  27              	
  28              	  # int strcmp(const char *src1, const char* src2)
  29              	strcmp:
  30              	    ##  Using LMUL=2, but same register names work for larger LMULs
  31 001c 0143     	    li t1, 0                # Initial pointer bump
  32              	1:
  33 001e D772100C 	    vsetvli t0, x0, e8, m2, ta, ma  # Max length vectors of bytes
  34 0022 1A95     	    add a0, a0, t1          # Bump src1 pointer
  35 0024 07040503 	    vle8ff.v v8, (a0)       # Get src1 bytes
  36 0028 9A95     	    add a1, a1, t1          # Bump src2 pointer
  37 002a 07880503 	    vle8ff.v v16, (a1)      # Get src2 bytes
  38              	
  39 002e 57308062 	    vmseq.vi v0, v8, 0      # Flag zero bytes in src1
  40 0032 D7008866 	    vmsne.vv v1, v8, v16    # Flag if src1 != src2
  41 0036 57A0006A 	    vmor.mm v0, v0, v1      # Combine exit conditions
  42              	    
  43 003a 57A60842 	    vfirst.m a2, v0         # ==0 or != ?
  44 003e 732300C2 	    csrr t1, vl             # Get number of bytes fetched
  45              	    
  46 0042 E34E06FC 	    bltz a2, 1b             # Loop if all same and no zero byte
  47              	
  48 0046 3295     	    add a0, a0, a2          # Get src1 element address
  49 0048 83460500 	    lbu a3, (a0)            # Get src1 byte from memory
  50              	
  51 004c B295     	    add a1, a1, a2          # Get src2 element address
  52 004e 03C70500 	    lbu a4, (a1)            # Get src2 byte from memory
  53              	
  54 0052 3385E640 	    sub a0, a3, a4          # Return value.
  55              	
  56 0056 8280     	    ret
  57              	
GAS LISTING riscv64/generated/assemblySamples/semantics.S 			page 2


  58              	
  59              	    .global strcpy
  60              	  # char* strcpy(char *dst, const char* src)
  61              	strcpy:
  62 0058 2A86     	      mv a2, a0             # Copy dst
  63 005a FD52     	      li t0, -1             # Infinite AVL
  64              	1:
  65 005c 57F0320C 	    vsetvli x0, t0, e8, m8, ta, ma  # Max length vectors of bytes
  66 0060 07840503 	    vle8ff.v v8, (a1)        # Get src bytes
  67 0064 732300C2 	      csrr t1, vl           # Get number of bytes fetched
  68 0068 D7308062 	    vmseq.vi v1, v8, 0      # Flag zero bytes
  69 006c D7A61842 	    vfirst.m a3, v1         # Zero found?
  70 0070 9A95     	      add a1, a1, t1        # Bump pointer
  71 0072 57A01152 	    vmsif.m v0, v1          # Set mask up to and including zero byte.
  72 0076 27040600 	    vse8.v v8, (a2), v0.t   # Write out bytes
  73 007a 1A96     	      add a2, a2, t1        # Bump pointer
  74 007c E3C006FE 	      bltz a3, 1b           # Zero byte not found, so loop
  75              	
  76 0080 8280     	      ret
  77              	
  78              	    .global strlen
  79              	# size_t strlen(const char *str)
  80              	# a0 holds *str
  81              	
  82              	strlen:
  83 0082 AA86     	    mv a3, a0             # Save start
  84              	1:
  85 0084 D775300C 	    vsetvli a1, x0, e8, m8, ta, ma  # Vector of bytes of maximum length
  86 0088 07840603 	    vle8ff.v v8, (a3)      # Load bytes
  87 008c F32500C2 	    csrr a1, vl           # Get bytes read
  88 0090 57308062 	    vmseq.vi v0, v8, 0    # Set v0[i] where v8[i] = 0
  89 0094 57A60842 	    vfirst.m a2, v0       # Find first set bit
  90 0098 AE96     	    add a3, a3, a1        # Bump pointer
  91 009a E34506FE 	    bltz a2, 1b           # Not found?
  92              	
  93 009e 2E95     	    add a0, a0, a1        # Sum start + bump
  94 00a0 B296     	    add a3, a3, a2        # Add index
  95 00a2 3385A640 	    sub a0, a3, a0        # Subtract start address+bump
  96              	
  97 00a6 8280     	    ret
  98              	 
  99              	    .global strncpy
 100              	  # char* strncpy(char *dst, const char* src, size_t n)
 101              	strncpy:
 102 00a8 AA86     	      mv a3, a0             # Copy dst
 103              	1:
 104 00aa 5770360C 	    vsetvli x0, a2, e8, m8, ta, ma   # Vectors of bytes.
 105 00ae 07840503 	    vle8ff.v v8, (a1)        # Get src bytes
 106 00b2 D7308062 	    vmseq.vi v1, v8, 0      # Flag zero bytes
 107 00b6 732300C2 	      csrr t1, vl           # Get number of bytes fetched
 108 00ba 57A71842 	    vfirst.m a4, v1         # Zero found?
 109 00be 57A01052 	    vmsbf.m v0, v1          # Set mask up to before zero byte.
 110 00c2 27840600 	    vse8.v v8, (a3), v0.t    # Write out non-zero bytes
 111 00c6 63580700 	      bgez a4, zero_tail    # Zero remaining bytes.
 112 00ca 33066640 	      sub a2, a2, t1        # Decrement count.
 113 00ce 9A96     	      add a3, a3, t1        # Bump dest pointer
 114 00d0 9A95     	      add a1, a1, t1        # Bump src pointer
GAS LISTING riscv64/generated/assemblySamples/semantics.S 			page 3


 115 00d2 61FE     	      bnez a2, 1b         # Anymore?
 116              	
 117 00d4 8280     	      ret
 118              	
 119              	zero_tail:
 120 00d6 198E     	    sub a2, a2, a4          # Subtract count on non-zero bytes.
 121 00d8 BA96     	    add a3, a3, a4          # Advance past non-zero bytes.
 122 00da 5773360C 	    vsetvli t1, a2, e8, m8, ta, ma   # Vectors of bytes.
 123 00de 5730005E 	    vmv.v.i v0, 0           # Splat zero.
 124              	
 125              	zero_loop:
 126 00e2 27800602 	    vse8.v v0, (a3)          # Store zero.
 127 00e6 33066640 	      sub a2, a2, t1        # Decrement count.
 128 00ea 9A96     	      add a3, a3, t1        # Bump pointer
 129 00ec 5773360C 	      vsetvli t1, a2, e8, m8, ta, ma   # Vectors of bytes.
 130 00f0 6DFA     	      bnez a2, zero_loop    # Anymore?
 131              	
 132 00f2 8280     	      ret
GAS LISTING riscv64/generated/assemblySamples/semantics.S 			page 4


DEFINED SYMBOLS
riscv64/generated/assemblySamples/semantics.S:10     .text:0000000000000000 $xrv64i2p1_m2p0_a2p1_f2p2_d2p2_q2p2_c2p0_v1p0_zicsr2p0_zifencei2p0_zmmul1p0_zve32f1p0_zve32x1p0_zve64d1p0_zve64f1p0_zve64x1p0_zvl128b1p0_zvl32b1p0_zvl64b1p0
riscv64/generated/assemblySamples/semantics.S:15     .text:0000000000000002 memcpy
riscv64/generated/assemblySamples/semantics.S:29     .text:000000000000001c strcmp
riscv64/generated/assemblySamples/semantics.S:61     .text:0000000000000058 strcpy
riscv64/generated/assemblySamples/semantics.S:82     .text:0000000000000082 strlen
riscv64/generated/assemblySamples/semantics.S:101    .text:00000000000000a8 strncpy
riscv64/generated/assemblySamples/semantics.S:119    .text:00000000000000d6 zero_tail
riscv64/generated/assemblySamples/semantics.S:125    .text:00000000000000e2 zero_loop
riscv64/generated/assemblySamples/semantics.S:17     .text:0000000000000004 .L11
riscv64/generated/assemblySamples/semantics.S:32     .text:000000000000001e .L12
riscv64/generated/assemblySamples/semantics.S:64     .text:000000000000005c .L13
riscv64/generated/assemblySamples/semantics.S:84     .text:0000000000000084 .L14
riscv64/generated/assemblySamples/semantics.S:103    .text:00000000000000aa .L15

NO UNDEFINED SYMBOLS
